Certificate:
    Data:
        Version: 3 (0x2)
        Serial Number:
            d5:31:b8:93:e7:95:76:81
    Signature Algorithm: sha256WithRSAEncryption
        Issuer: C=NL, ST=Gelderland, O=aredev, OU=Thesis, CN=aawsome/emailAddress=abdullah@rasool.xyz
        Validity
            Not Before: May 10 18:42:51 2016 GMT
            Not After : May 10 18:42:51 2017 GMT
        Subject: C=NL, ST=Gelderland, L=Nijmegen, O=Thesis, OU=Supplicant, CN=supplicant/emailAddress=abdullah@rasool.xuz
        Subject Public Key Info:
            Public Key Algorithm: rsaEncryption
                Public-Key: (2048 bit)
                Modulus:
                    00:bf:bf:bf:72:1e:db:36:43:e6:fb:ff:5e:90:ea:
                    4c:97:75:e4:1e:63:8a:69:f8:2d:62:52:db:b6:7f:
                    aa:4a:f5:24:b6:00:d7:4a:d6:3f:f5:72:96:98:2e:
                    02:f5:1f:7a:9f:c5:3d:70:37:aa:bc:c0:fb:a4:0d:
                    c7:00:1c:00:fd:4d:92:85:e0:e0:3c:54:b0:7d:f7:
                    b4:97:1b:92:31:4c:ba:8f:f8:0d:74:41:dd:95:2d:
                    74:71:7b:1d:c6:be:33:a0:fe:42:b0:8a:f9:f8:74:
                    1d:c6:30:ff:36:08:db:60:d0:61:4f:c3:29:1b:45:
                    a3:71:7a:a9:75:47:74:4b:d3:31:d6:d6:68:d2:d9:
                    c6:6c:10:1b:41:87:4d:77:85:8d:45:2e:cb:34:76:
                    73:27:f4:99:0e:02:e8:c3:1f:f0:d3:ee:ea:17:8e:
                    b2:e2:8d:72:71:8e:55:5d:a7:66:1b:bf:24:2c:7a:
                    9c:5c:2c:51:4c:e7:53:29:8a:89:7d:1f:4b:37:62:
                    d4:58:da:54:84:12:c3:05:85:1e:49:68:84:da:00:
                    fe:9e:59:a4:54:d1:cf:fa:a3:f5:ce:96:45:df:9b:
                    a7:fe:9e:f6:ac:c3:99:2e:30:8c:7c:22:b2:4d:7c:
                    ce:63:81:75:7d:87:c0:39:5d:ab:2d:1a:25:91:2c:
                    04:7d
                Exponent: 65537 (0x10001)
        X509v3 extensions:
            X509v3 Basic Constraints: 
                CA:FALSE
            Netscape Comment: 
                OpenSSL Generated Certificate
            X509v3 Subject Key Identifier: 
                0D:50:1C:76:A2:F9:AF:44:6C:6D:54:F6:90:49:C6:58:FB:2E:B9:D6
            X509v3 Authority Key Identifier: 
                keyid:B0:35:91:44:CD:90:EA:CC:E2:47:AB:CF:AE:65:92:7F:93:3D:AA:D3

    Signature Algorithm: sha256WithRSAEncryption
         49:74:ec:ee:83:e4:bb:bc:c4:dc:d7:af:c6:f1:5d:26:8f:bb:
         2c:35:12:42:fb:ad:04:6c:af:3c:1f:24:db:3d:e9:1e:6a:2d:
         36:c5:e0:5e:1e:46:11:85:1f:71:fd:a1:e9:e4:02:8c:3d:0b:
         7f:b6:88:c1:94:de:54:f7:06:25:d0:31:42:b7:e4:9e:7e:f1:
         c6:98:7d:b7:66:b8:17:16:08:b2:e8:47:f9:65:b8:41:bf:04:
         42:fa:ff:fd:c6:c2:dc:7d:be:ea:60:bd:af:a8:6d:67:e4:a0:
         bc:59:79:63:0e:4c:20:b0:55:e7:f0:95:87:ac:9c:c1:73:9f:
         d5:10:76:3f:d1:6b:fb:78:ff:b9:1b:95:d8:ef:56:74:0d:b2:
         d4:f5:09:2d:59:7c:6f:73:16:1a:67:ae:65:c5:bd:7a:f1:a6:
         e9:23:4b:56:06:08:c1:bc:00:3d:3e:58:6a:0e:79:cd:91:56:
         eb:08:36:2d:b9:bf:7c:49:f2:5f:92:16:9d:46:6e:c1:82:0b:
         e0:d5:c2:3e:1f:5a:ce:2f:11:61:71:f4:31:62:72:e2:be:d8:
         db:3a:2f:78:61:0b:4c:6f:f2:5d:34:7b:70:78:f8:8b:2c:4d:
         e3:58:16:74:bf:a1:86:d6:a8:b3:b9:86:86:eb:58:d6:87:43:
         1d:4b:2d:f1
-----BEGIN CERTIFICATE-----
MIIEDTCCAvWgAwIBAgIJANUxuJPnlXaBMA0GCSqGSIb3DQEBCwUAMHoxCzAJBgNV
BAYTAk5MMRMwEQYDVQQIDApHZWxkZXJsYW5kMQ8wDQYDVQQKDAZhcmVkZXYxDzAN
BgNVBAsMBlRoZXNpczEQMA4GA1UEAwwHYWF3c29tZTEiMCAGCSqGSIb3DQEJARYT
YWJkdWxsYWhAcmFzb29sLnh5ejAeFw0xNjA1MTAxODQyNTFaFw0xNzA1MTAxODQy
NTFaMIGUMQswCQYDVQQGEwJOTDETMBEGA1UECAwKR2VsZGVybGFuZDERMA8GA1UE
BwwITmlqbWVnZW4xDzANBgNVBAoMBlRoZXNpczETMBEGA1UECwwKU3VwcGxpY2Fu
dDETMBEGA1UEAwwKc3VwcGxpY2FudDEiMCAGCSqGSIb3DQEJARYTYWJkdWxsYWhA
cmFzb29sLnh1ejCCASIwDQYJKoZIhvcNAQEBBQADggEPADCCAQoCggEBAL+/v3Ie
2zZD5vv/XpDqTJd15B5jimn4LWJS27Z/qkr1JLYA10rWP/VylpguAvUfep/FPXA3
qrzA+6QNxwAcAP1NkoXg4DxUsH33tJcbkjFMuo/4DXRB3ZUtdHF7Hca+M6D+QrCK
+fh0HcYw/zYI22DQYU/DKRtFo3F6qXVHdEvTMdbWaNLZxmwQG0GHTXeFjUUuyzR2
cyf0mQ4C6MMf8NPu6heOsuKNcnGOVV2nZhu/JCx6nFwsUUznUymKiX0fSzdi1Fja
VIQSwwWFHklohNoA/p5ZpFTRz/qj9c6WRd+bp/6e9qzDmS4wjHwisk18zmOBdX2H
wDldqy0aJZEsBH0CAwEAAaN7MHkwCQYDVR0TBAIwADAsBglghkgBhvhCAQ0EHxYd
T3BlblNTTCBHZW5lcmF0ZWQgQ2VydGlmaWNhdGUwHQYDVR0OBBYEFA1QHHai+a9E
bG1U9pBJxlj7LrnWMB8GA1UdIwQYMBaAFLA1kUTNkOrM4kerz65lkn+TParTMA0G
CSqGSIb3DQEBCwUAA4IBAQBJdOzug+S7vMTc16/G8V0mj7ssNRJC+60EbK88HyTb
Pekeai02xeBeHkYRhR9x/aHp5AKMPQt/tojBlN5U9wYl0DFCt+SefvHGmH23ZrgX
Fgiy6Ef5ZbhBvwRC+v/9xsLcfb7qYL2vqG1n5KC8WXljDkwgsFXn8JWHrJzBc5/V
EHY/0Wv7eP+5G5XY71Z0DbLU9QktWXxvcxYaZ65lxb168abpI0tWBgjBvAA9Plhq
DnnNkVbrCDYtub98SfJfkhadRm7Bggvg1cI+H1rOLxFhcfQxYnLivtjbOi94YQtM
b/JdNHtwePiLLE3jWBZ0v6GG1qizuYaG61jWh0MdSy3x
-----END CERTIFICATE-----
