Certificate:
    Data:
        Version: 3 (0x2)
        Serial Number: 1 (0x1)
    Signature Algorithm: md5WithRSAEncryption
        Issuer: C=FR, ST=Radius, L=Somewhere, O=Example Inc./emailAddress=admin@example.com, CN=Example Certificate Authority
        Validity
            Not Before: Apr 11 11:33:05 2016 GMT
            Not After : Apr 11 11:33:05 2017 GMT
        Subject: C=FR, ST=Radius, O=Example Inc., CN=Example Server Certificate/emailAddress=admin@example.com
        Subject Public Key Info:
            Public Key Algorithm: rsaEncryption
                Public-Key: (2048 bit)
                Modulus:
                    00:b4:15:75:fb:2f:2e:c9:71:bc:2d:df:d9:c5:7c:
                    68:8f:60:db:7e:50:2f:21:50:f4:29:c2:c6:04:e0:
                    bf:ea:e3:d8:fe:77:84:3c:c0:ad:8d:51:bb:c8:fc:
                    18:0e:ce:81:a7:76:61:02:9c:9c:72:6b:ca:05:36:
                    11:f5:31:13:a5:b4:04:de:75:87:52:87:98:b6:77:
                    cf:09:b1:b6:28:fb:88:c7:39:ee:f2:d6:91:26:62:
                    2b:09:f6:62:e0:4f:15:6e:89:78:93:8f:7a:02:ce:
                    ab:50:f8:4a:8e:13:60:95:83:fa:df:ec:b7:c4:6c:
                    fb:00:3e:2d:fd:37:8e:57:99:48:a7:62:5b:9e:a2:
                    9f:60:6c:f0:9d:6f:e8:7c:ba:06:28:25:12:58:b7:
                    0e:2f:9f:3f:07:95:20:2c:15:cf:27:83:45:3e:0d:
                    78:89:50:88:7c:ba:e9:85:fa:11:74:c1:94:9b:d5:
                    14:c4:ce:31:ef:c8:61:3f:ec:d3:47:e7:0d:b8:af:
                    82:2b:d9:b0:f5:d4:a2:4f:d3:8a:5f:65:4e:c6:87:
                    24:14:4a:5f:de:a0:8a:59:47:44:8d:15:a5:95:eb:
                    7d:ea:20:ff:6f:4b:2f:a4:98:c8:7f:98:36:90:e2:
                    6a:ce:36:91:c6:57:9f:78:c3:3f:43:10:3d:dc:7b:
                    d3:29
                Exponent: 65537 (0x10001)
        X509v3 extensions:
            X509v3 Extended Key Usage: 
                TLS Web Server Authentication
    Signature Algorithm: md5WithRSAEncryption
         8e:44:b4:90:ed:20:37:7d:80:b3:b3:41:11:be:1f:95:c2:81:
         20:0e:9f:46:c2:54:02:30:80:c9:32:3f:5d:2b:b4:d3:0d:db:
         48:20:e7:83:89:f5:9b:a8:3d:55:a8:65:04:2c:2d:06:f9:05:
         33:dc:c2:a2:f1:8d:ec:2b:ec:c2:ca:63:23:f7:46:cf:f7:63:
         b0:b9:7e:93:8e:4d:01:d0:d0:6b:3c:f5:d6:04:d8:15:af:17:
         0c:d3:d3:33:94:6c:c4:1d:e2:e7:15:f3:0f:41:95:e4:48:99:
         3e:cd:9b:3b:92:a4:d8:ba:2d:a6:33:a1:c0:ad:5a:bb:ee:3f:
         3f:78:eb:03:59:75:cd:73:b3:0d:76:75:9a:99:71:ac:78:4c:
         97:e5:d3:12:6e:48:aa:27:1b:ba:60:82:e3:02:59:e0:99:e8:
         a3:f7:0a:8a:8e:fd:1a:26:e6:9d:e7:42:03:a1:2f:3d:76:13:
         2d:c5:0c:50:5b:21:d8:a5:ca:92:7b:b3:15:34:b8:7e:d1:89:
         b8:97:9e:8f:b3:7b:65:32:07:b4:9c:83:f2:a2:d7:49:40:15:
         e5:25:82:35:d1:53:54:1b:0d:6b:16:32:da:51:8e:de:f7:a5:
         ce:64:30:36:8c:80:15:1b:a8:6a:66:c5:5b:96:03:8f:4a:b1:
         66:76:e2:ac
-----BEGIN CERTIFICATE-----
MIIDojCCAoqgAwIBAgIBATANBgkqhkiG9w0BAQQFADCBkzELMAkGA1UEBhMCRlIx
DzANBgNVBAgTBlJhZGl1czESMBAGA1UEBxMJU29tZXdoZXJlMRUwEwYDVQQKEwxF
eGFtcGxlIEluYy4xIDAeBgkqhkiG9w0BCQEWEWFkbWluQGV4YW1wbGUuY29tMSYw
JAYDVQQDEx1FeGFtcGxlIENlcnRpZmljYXRlIEF1dGhvcml0eTAeFw0xNjA0MTEx
MTMzMDVaFw0xNzA0MTExMTMzMDVaMHwxCzAJBgNVBAYTAkZSMQ8wDQYDVQQIEwZS
YWRpdXMxFTATBgNVBAoTDEV4YW1wbGUgSW5jLjEjMCEGA1UEAxMaRXhhbXBsZSBT
ZXJ2ZXIgQ2VydGlmaWNhdGUxIDAeBgkqhkiG9w0BCQEWEWFkbWluQGV4YW1wbGUu
Y29tMIIBIjANBgkqhkiG9w0BAQEFAAOCAQ8AMIIBCgKCAQEAtBV1+y8uyXG8Ld/Z
xXxoj2DbflAvIVD0KcLGBOC/6uPY/neEPMCtjVG7yPwYDs6Bp3ZhApyccmvKBTYR
9TETpbQE3nWHUoeYtnfPCbG2KPuIxznu8taRJmIrCfZi4E8Vbol4k496As6rUPhK
jhNglYP63+y3xGz7AD4t/TeOV5lIp2JbnqKfYGzwnW/ofLoGKCUSWLcOL58/B5Ug
LBXPJ4NFPg14iVCIfLrphfoRdMGUm9UUxM4x78hhP+zTR+cNuK+CK9mw9dSiT9OK
X2VOxockFEpf3qCKWUdEjRWllet96iD/b0svpJjIf5g2kOJqzjaRxlefeMM/QxA9
3HvTKQIDAQABoxcwFTATBgNVHSUEDDAKBggrBgEFBQcDATANBgkqhkiG9w0BAQQF
AAOCAQEAjkS0kO0gN32As7NBEb4flcKBIA6fRsJUAjCAyTI/XSu00w3bSCDng4n1
m6g9VahlBCwtBvkFM9zCovGN7CvswspjI/dGz/djsLl+k45NAdDQazz11gTYFa8X
DNPTM5RsxB3i5xXzD0GV5EiZPs2bO5Kk2LotpjOhwK1au+4/P3jrA1l1zXOzDXZ1
mplxrHhMl+XTEm5IqicbumCC4wJZ4Jnoo/cKio79GibmnedCA6EvPXYTLcUMUFsh
2KXKknuzFTS4ftGJuJeej7N7ZTIHtJyD8qLXSUAV5SWCNdFTVBsNaxYy2lGO3vel
zmQwNoyAFRuoambFW5YDj0qxZnbirA==
-----END CERTIFICATE-----
