Certificate:
    Data:
        Version: 3 (0x2)
        Serial Number:
            d5:31:b8:93:e7:95:76:80
    Signature Algorithm: sha256WithRSAEncryption
        Issuer: C=NL, ST=Gelderland, O=aredev, OU=Thesis, CN=aawsome/emailAddress=abdullah@rasool.xyz
        Validity
            Not Before: May 10 14:33:54 2016 GMT
            Not After : May 10 14:33:54 2017 GMT
        Subject: C=NL, ST=Gelderland, L=Nijmegen, O=aredev, CN=aawsome /emailAddress=abdullah@rasool.xyz
        Subject Public Key Info:
            Public Key Algorithm: rsaEncryption
                Public-Key: (2048 bit)
                Modulus:
                    00:94:f1:e0:fb:09:e2:a0:c9:3d:f9:7d:26:af:92:
                    76:8a:a2:0a:0e:ef:91:a2:18:a6:27:26:ec:3b:08:
                    8b:2e:69:06:eb:5c:38:a9:64:59:b1:cd:45:c6:e9:
                    a1:af:32:5e:00:b4:6d:04:a9:49:bc:54:94:f0:76:
                    41:43:3b:5d:c6:c9:a7:02:e3:6a:9d:50:a7:30:1f:
                    d6:95:55:92:82:e4:31:53:73:0e:3b:7e:81:96:0e:
                    8d:85:a4:3a:6c:32:6b:1b:df:66:6b:a3:a1:c4:8a:
                    16:72:7c:d5:5e:2d:7d:ee:c0:30:3f:a7:2a:67:f9:
                    c6:c6:f1:12:aa:2a:32:70:bf:e4:23:52:9b:3e:36:
                    26:c2:79:4c:fa:d7:56:61:0e:40:72:0a:c9:02:ad:
                    f9:f4:ba:e4:a3:3b:f8:53:88:78:48:f5:c5:82:34:
                    1d:f1:a1:11:36:f3:02:9b:e1:03:19:9c:9b:3d:57:
                    39:86:94:24:8b:74:43:f9:0a:2c:fa:1f:2d:1b:36:
                    cd:18:19:0f:5a:b1:9b:ec:b6:ec:8e:39:2e:4d:a6:
                    99:97:4f:c8:a1:fa:14:ae:c2:ce:43:77:f0:17:2c:
                    c1:a7:9f:b4:2b:63:be:b8:00:a0:74:c3:a4:2e:0e:
                    40:f1:a6:a0:f5:70:2a:a7:b3:b2:ce:c9:7d:6a:f2:
                    07:f9
                Exponent: 65537 (0x10001)
        X509v3 extensions:
            X509v3 Basic Constraints: 
                CA:FALSE
            Netscape Comment: 
                OpenSSL Generated Certificate
            X509v3 Subject Key Identifier: 
                E1:38:8C:A4:34:72:E0:FE:86:90:57:36:B3:60:9F:F7:02:F5:C3:40
            X509v3 Authority Key Identifier: 
                keyid:B0:35:91:44:CD:90:EA:CC:E2:47:AB:CF:AE:65:92:7F:93:3D:AA:D3

    Signature Algorithm: sha256WithRSAEncryption
         8e:cb:32:c2:b4:81:f6:a7:5d:e9:0c:db:d2:d8:1a:f2:1d:88:
         01:a9:50:1d:f3:e2:0d:f9:61:0e:15:cf:83:92:59:24:e8:5c:
         e4:35:40:72:0b:81:eb:e7:84:ec:34:f8:3a:a0:d6:32:a6:69:
         2b:78:3c:f7:bf:1d:c7:07:e6:b8:76:bb:46:76:53:43:84:65:
         d4:83:05:f3:c4:bd:8a:77:74:0f:99:23:79:31:21:90:c2:71:
         27:93:44:9b:15:4f:4d:07:72:3f:da:01:c4:82:f4:e2:19:8e:
         9c:6a:01:8b:a2:1a:11:2e:74:3c:75:54:08:34:8c:8a:df:0a:
         14:56:70:7d:d2:39:03:7b:eb:81:ed:1f:78:e6:4e:af:d4:44:
         36:43:f0:d2:6c:65:3c:2b:eb:94:b9:0c:4c:5c:36:0f:88:e9:
         bb:e6:81:bb:14:7f:71:61:fa:e9:24:73:9c:6f:20:d5:63:21:
         d0:f5:cb:2b:ce:05:1f:e8:fa:d3:d9:00:21:88:78:ca:8b:8b:
         a2:cb:c6:b7:7c:d1:86:95:fb:71:ab:fc:d0:eb:aa:01:68:56:
         0e:c8:bc:fc:57:d5:85:50:04:cb:50:cd:3f:d4:ed:db:d4:25:
         f1:80:0d:22:d9:77:63:5e:0e:ee:a6:e6:b6:39:34:3f:e0:32:
         75:03:7e:20
-----BEGIN CERTIFICATE-----
MIID9TCCAt2gAwIBAgIJANUxuJPnlXaAMA0GCSqGSIb3DQEBCwUAMHoxCzAJBgNV
BAYTAk5MMRMwEQYDVQQIDApHZWxkZXJsYW5kMQ8wDQYDVQQKDAZhcmVkZXYxDzAN
BgNVBAsMBlRoZXNpczEQMA4GA1UEAwwHYWF3c29tZTEiMCAGCSqGSIb3DQEJARYT
YWJkdWxsYWhAcmFzb29sLnh5ejAeFw0xNjA1MTAxNDMzNTRaFw0xNzA1MTAxNDMz
NTRaMH0xCzAJBgNVBAYTAk5MMRMwEQYDVQQIDApHZWxkZXJsYW5kMREwDwYDVQQH
DAhOaWptZWdlbjEPMA0GA1UECgwGYXJlZGV2MREwDwYDVQQDDAhhYXdzb21lIDEi
MCAGCSqGSIb3DQEJARYTYWJkdWxsYWhAcmFzb29sLnh5ejCCASIwDQYJKoZIhvcN
AQEBBQADggEPADCCAQoCggEBAJTx4PsJ4qDJPfl9Jq+SdoqiCg7vkaIYpicm7DsI
iy5pButcOKlkWbHNRcbpoa8yXgC0bQSpSbxUlPB2QUM7XcbJpwLjap1QpzAf1pVV
koLkMVNzDjt+gZYOjYWkOmwyaxvfZmujocSKFnJ81V4tfe7AMD+nKmf5xsbxEqoq
MnC/5CNSmz42JsJ5TPrXVmEOQHIKyQKt+fS65KM7+FOIeEj1xYI0HfGhETbzApvh
Axmcmz1XOYaUJIt0Q/kKLPofLRs2zRgZD1qxm+y27I45Lk2mmZdPyKH6FK7CzkN3
8BcswaeftCtjvrgAoHTDpC4OQPGmoPVwKqezss7JfWryB/kCAwEAAaN7MHkwCQYD
VR0TBAIwADAsBglghkgBhvhCAQ0EHxYdT3BlblNTTCBHZW5lcmF0ZWQgQ2VydGlm
aWNhdGUwHQYDVR0OBBYEFOE4jKQ0cuD+hpBXNrNgn/cC9cNAMB8GA1UdIwQYMBaA
FLA1kUTNkOrM4kerz65lkn+TParTMA0GCSqGSIb3DQEBCwUAA4IBAQCOyzLCtIH2
p13pDNvS2BryHYgBqVAd8+IN+WEOFc+Dklkk6FzkNUByC4Hr54TsNPg6oNYypmkr
eDz3vx3HB+a4drtGdlNDhGXUgwXzxL2Kd3QPmSN5MSGQwnEnk0SbFU9NB3I/2gHE
gvTiGY6cagGLohoRLnQ8dVQINIyK3woUVnB90jkDe+uB7R945k6v1EQ2Q/DSbGU8
K+uUuQxMXDYPiOm75oG7FH9xYfrpJHOcbyDVYyHQ9csrzgUf6PrT2QAhiHjKi4ui
y8a3fNGGlftxq/zQ66oBaFYOyLz8V9WFUATLUM0/1O3b1CXxgA0i2XdjXg7upua2
OTQ/4DJ1A34g
-----END CERTIFICATE-----
