Certificate:
    Data:
        Version: 3 (0x2)
        Serial Number:
            d5:31:b8:93:e7:95:76:7f
    Signature Algorithm: sha256WithRSAEncryption
        Issuer: C=NL, ST=Gelderland, O=aredev, OU=Thesis, CN=aawsome/emailAddress=abdullah@rasool.xyz
        Validity
            Not Before: May 10 14:32:57 2016 GMT
            Not After : May 10 14:32:57 2019 GMT
        Subject: C=NL, ST=Gelderland, O=aredev, OU=Thesis, CN=aawsome/emailAddress=abdullah@rasool.xyz
        Subject Public Key Info:
            Public Key Algorithm: rsaEncryption
                Public-Key: (2048 bit)
                Modulus:
                    00:a5:bf:81:fb:bd:91:a5:5e:63:29:8b:6e:7a:c9:
                    aa:d3:b6:57:27:65:2e:29:58:3b:93:1b:83:4f:a6:
                    c0:f6:46:bc:e4:7c:98:2c:bb:a5:5d:b1:e7:7b:15:
                    3a:b8:d5:d6:64:d0:07:b7:ac:22:a5:5d:d3:a2:6b:
                    39:cf:19:e6:31:46:16:d5:33:83:27:3d:f7:48:59:
                    24:28:c5:b6:a1:ca:59:7f:06:0c:72:c9:8f:4e:62:
                    dd:a6:9a:ab:0b:23:22:7f:1c:20:8d:76:31:85:21:
                    11:1a:9f:02:b7:58:71:38:ea:db:a8:f1:8f:b9:bf:
                    34:d3:a1:15:73:c5:3a:4f:f4:46:4e:56:a0:37:ce:
                    a1:d1:8a:cc:84:73:fc:7b:dc:58:1d:df:de:c9:4c:
                    c3:f5:09:95:d1:49:7e:f3:81:1f:7e:50:cc:c3:78:
                    c6:d8:73:d6:d7:75:99:31:77:ee:f4:6f:c3:af:c8:
                    1b:ae:40:58:d6:1f:3e:59:ac:4c:bc:c8:09:23:66:
                    45:1e:11:0e:9e:96:e2:1b:6e:47:4e:44:e5:9e:cc:
                    20:c5:31:81:ce:f4:7d:53:23:2c:bd:55:66:79:34:
                    7e:75:4a:7d:bf:70:bb:8f:d7:49:3f:ff:fa:88:9e:
                    fe:6b:72:e1:ef:cc:6a:a8:d2:1a:76:4c:04:04:52:
                    e1:5b
                Exponent: 65537 (0x10001)
        X509v3 extensions:
            X509v3 Subject Key Identifier: 
                B0:35:91:44:CD:90:EA:CC:E2:47:AB:CF:AE:65:92:7F:93:3D:AA:D3
            X509v3 Authority Key Identifier: 
                keyid:B0:35:91:44:CD:90:EA:CC:E2:47:AB:CF:AE:65:92:7F:93:3D:AA:D3

            X509v3 Basic Constraints: 
                CA:TRUE
    Signature Algorithm: sha256WithRSAEncryption
         4d:68:a0:f9:b5:24:e3:49:97:11:16:78:b6:b1:90:4d:cf:7c:
         70:b1:5a:58:6f:1d:5d:84:2b:59:26:e5:85:1d:f6:0b:4a:0f:
         78:32:3d:a9:2d:73:a3:b8:ef:ee:35:63:37:6c:a2:60:d7:4c:
         b1:89:7d:2c:2b:d1:82:21:cf:3a:c2:62:8a:5e:e8:5e:27:2d:
         ed:a3:c1:7c:9a:3f:eb:b5:a2:16:03:ff:76:27:f1:15:dd:0c:
         e0:67:c0:f1:6e:5c:81:a2:ec:55:8f:51:84:8d:4c:c3:d0:0e:
         a9:32:4f:6f:98:d0:b6:78:84:72:56:29:76:fa:a0:b7:64:c7:
         75:c1:e4:9c:85:da:66:f5:5a:4e:79:a4:8e:78:b9:86:ac:e6:
         f5:92:a1:0f:24:e5:7f:7a:af:bb:be:bd:be:18:5c:59:65:cb:
         61:75:b0:d8:b3:b2:64:45:52:5f:60:f2:49:6b:0e:b2:a2:46:
         1c:df:59:c9:b9:d5:ae:cd:c1:35:1b:c5:e5:f5:23:cd:ce:a9:
         d6:50:64:a5:ca:5b:bd:ed:d0:e9:7d:98:6b:05:83:30:f6:42:
         89:ae:f4:a4:d2:aa:1e:f6:8a:23:64:f9:1a:9f:ff:31:e8:67:
         8a:24:23:f4:3f:7d:ce:80:bf:a7:59:27:40:cf:26:93:26:06:
         33:41:cd:a1
-----BEGIN CERTIFICATE-----
MIIDxzCCAq+gAwIBAgIJANUxuJPnlXZ/MA0GCSqGSIb3DQEBCwUAMHoxCzAJBgNV
BAYTAk5MMRMwEQYDVQQIDApHZWxkZXJsYW5kMQ8wDQYDVQQKDAZhcmVkZXYxDzAN
BgNVBAsMBlRoZXNpczEQMA4GA1UEAwwHYWF3c29tZTEiMCAGCSqGSIb3DQEJARYT
YWJkdWxsYWhAcmFzb29sLnh5ejAeFw0xNjA1MTAxNDMyNTdaFw0xOTA1MTAxNDMy
NTdaMHoxCzAJBgNVBAYTAk5MMRMwEQYDVQQIDApHZWxkZXJsYW5kMQ8wDQYDVQQK
DAZhcmVkZXYxDzANBgNVBAsMBlRoZXNpczEQMA4GA1UEAwwHYWF3c29tZTEiMCAG
CSqGSIb3DQEJARYTYWJkdWxsYWhAcmFzb29sLnh5ejCCASIwDQYJKoZIhvcNAQEB
BQADggEPADCCAQoCggEBAKW/gfu9kaVeYymLbnrJqtO2VydlLilYO5Mbg0+mwPZG
vOR8mCy7pV2x53sVOrjV1mTQB7esIqVd06JrOc8Z5jFGFtUzgyc990hZJCjFtqHK
WX8GDHLJj05i3aaaqwsjIn8cII12MYUhERqfArdYcTjq26jxj7m/NNOhFXPFOk/0
Rk5WoDfOodGKzIRz/HvcWB3f3slMw/UJldFJfvOBH35QzMN4xthz1td1mTF37vRv
w6/IG65AWNYfPlmsTLzICSNmRR4RDp6W4htuR05E5Z7MIMUxgc70fVMjLL1VZnk0
fnVKfb9wu4/XST//+oie/mty4e/MaqjSGnZMBARS4VsCAwEAAaNQME4wHQYDVR0O
BBYEFLA1kUTNkOrM4kerz65lkn+TParTMB8GA1UdIwQYMBaAFLA1kUTNkOrM4ker
z65lkn+TParTMAwGA1UdEwQFMAMBAf8wDQYJKoZIhvcNAQELBQADggEBAE1ooPm1
JONJlxEWeLaxkE3PfHCxWlhvHV2EK1km5YUd9gtKD3gyPaktc6O47+41YzdsomDX
TLGJfSwr0YIhzzrCYope6F4nLe2jwXyaP+u1ohYD/3Yn8RXdDOBnwPFuXIGi7FWP
UYSNTMPQDqkyT2+Y0LZ4hHJWKXb6oLdkx3XB5JyF2mb1Wk55pI54uYas5vWSoQ8k
5X96r7u+vb4YXFlly2F1sNizsmRFUl9g8klrDrKiRhzfWcm51a7NwTUbxeX1I83O
qdZQZKXKW73t0Ol9mGsFgzD2Qomu9KTSqh72iiNk+Rqf/zHoZ4okI/Q/fc6Av6dZ
J0DPJpMmBjNBzaE=
-----END CERTIFICATE-----
